target datalayout = "e-m:e-p270:32:32-p271:32:32-p272:64:64-i64:64-i128:128-f80:128-n8:16:32:64-S128"
target triple = "x86_64-pc-linux-gnu"

%struct.GuidPropertySet = type { %struct._e_guid_t, ptr, ptr, ptr }
%struct._e_guid_t = type { i32, i16, i16, [8 x i8] }
%struct.__va_list_tag = type { i32, i32, ptr, ptr }

@hf_mswsp_cdbpropset_cprops = internal global i32 0, align 4
@ett_CDbPropSet = internal global i32 0, align 4
@.str.1163 = private unnamed_addr constant [16 x i8] c"guidPropertySet\00", align 1
@.str.1164 = private unnamed_addr constant [11 x i8] c" \22%s\22 (%s)\00", align 1
@.str.1165 = private unnamed_addr constant [6 x i8] c" {%s}\00", align 1
@.str.1166 = private unnamed_addr constant [9 x i8] c" Num: %d\00", align 1
@.str.1167 = private unnamed_addr constant [10 x i8] c"aProp[%d]\00", align 1

; Function Attrs: null_pointer_is_valid sspstrong uwtable
define internal ptr @GuidPropertySet_find_guid(ptr noundef %0) #0 {
  %2 = alloca ptr, align 8
  %3 = alloca ptr, align 8
  %4 = alloca i32, align 4
  %5 = alloca i32, align 4
  store ptr %0, ptr %3, align 8
  call void @llvm.lifetime.start.p0(i64 4, ptr %4) #11
  store i32 0, ptr %4, align 4
  br label %6

6:                                                ; preds = %23, %1
  %7 = load i32, ptr %4, align 4
  %8 = zext i32 %7 to i64
  %9 = icmp ult i64 %8, 204
  br i1 %9, label %10, label %26

10:                                               ; preds = %6
  %11 = load i32, ptr %4, align 4
  %12 = zext i32 %11 to i64
  %13 = getelementptr [204 x %struct.GuidPropertySet], ptr @GuidPropertySet, i64 0, i64 %12
  %14 = getelementptr inbounds nuw %struct.GuidPropertySet, ptr %13, i32 0, i32 0
  %15 = load ptr, ptr %3, align 8
  %16 = call i32 @guid_cmp(ptr noundef %14, ptr noundef %15)
  %17 = icmp eq i32 %16, 0
  br i1 %17, label %18, label %22

18:                                               ; preds = %10
  %19 = load i32, ptr %4, align 4
  %20 = zext i32 %19 to i64
  %21 = getelementptr [204 x %struct.GuidPropertySet], ptr @GuidPropertySet, i64 0, i64 %20
  store ptr %21, ptr %2, align 8
  store i32 1, ptr %5, align 4
  br label %27

22:                                               ; preds = %10
  br label %23

23:                                               ; preds = %22
  %24 = load i32, ptr %4, align 4
  %25 = add i32 %24, 1
  store i32 %25, ptr %4, align 4
  br label %6, !llvm.loop !15

26:                                               ; preds = %6
  store ptr null, ptr %2, align 8
  store i32 1, ptr %5, align 4
  br label %27

27:                                               ; preds = %26, %18
  call void @llvm.lifetime.end.p0(i64 4, ptr %4) #11
  %28 = load ptr, ptr %2, align 8
  ret ptr %28
}

; Function Attrs: null_pointer_is_valid sspstrong uwtable
define internal i32 @parse_CDbPropSet(ptr noundef %0, ptr noundef %1, i32 noundef %2, ptr noundef %3, ptr noundef %4, ptr noundef %5, ...) #0 {
  %7 = alloca ptr, align 8
  %8 = alloca ptr, align 8
  %9 = alloca i32, align 4
  %10 = alloca ptr, align 8
  %11 = alloca ptr, align 8
  %12 = alloca ptr, align 8
  %13 = alloca i32, align 4
  %14 = alloca i32, align 4
  %15 = alloca %struct._e_guid_t, align 4
  %16 = alloca ptr, align 8
  %17 = alloca ptr, align 8
  %18 = alloca ptr, align 8
  %19 = alloca ptr, align 8
  %20 = alloca [1 x %struct.__va_list_tag], align 16
  %21 = alloca ptr, align 8
  store ptr %0, ptr %7, align 8
  store ptr %1, ptr %8, align 8
  store i32 %2, ptr %9, align 4
  store ptr %3, ptr %10, align 8
  store ptr %4, ptr %11, align 8
  store ptr %5, ptr %12, align 8
  call void @llvm.lifetime.start.p0(i64 4, ptr %13) #11
  call void @llvm.lifetime.start.p0(i64 4, ptr %14) #11
  call void @llvm.lifetime.start.p0(i64 16, ptr %15) #11
  call void @llvm.lifetime.start.p0(i64 8, ptr %16) #11
  call void @llvm.lifetime.start.p0(i64 8, ptr %17) #11
  call void @llvm.lifetime.start.p0(i64 8, ptr %18) #11
  call void @llvm.lifetime.start.p0(i64 8, ptr %19) #11
  call void @llvm.lifetime.start.p0(i64 24, ptr %20) #11
  %22 = getelementptr inbounds [1 x %struct.__va_list_tag], ptr %20, i64 0, i64 0
  call void @llvm.va_start.p0(ptr %22)
  %23 = call ptr @wmem_packet_scope()
  %24 = load ptr, ptr %12, align 8
  %25 = getelementptr inbounds [1 x %struct.__va_list_tag], ptr %20, i64 0, i64 0
  %26 = call noalias ptr @wmem_strdup_vprintf(ptr noundef %23, ptr noundef %24, ptr noundef %25)
  store ptr %26, ptr %19, align 8
  %27 = getelementptr inbounds [1 x %struct.__va_list_tag], ptr %20, i64 0, i64 0
  call void @llvm.va_end.p0(ptr %27)
  %28 = load ptr, ptr %10, align 8
  %29 = load ptr, ptr %7, align 8
  %30 = load i32, ptr %9, align 4
  %31 = load i32, ptr @ett_CDbPropSet, align 4
  %32 = load ptr, ptr %19, align 8
  %33 = call ptr @proto_tree_add_subtree(ptr noundef %28, ptr noundef %29, i32 noundef %30, i32 noundef 0, i32 noundef %31, ptr noundef %17, ptr noundef %32)
  store ptr %33, ptr %18, align 8
  %34 = load ptr, ptr %7, align 8
  %35 = load i32, ptr %9, align 4
  %36 = load ptr, ptr %18, align 8
  %37 = call i32 @parse_guid(ptr noundef %34, i32 noundef %35, ptr noundef %36, ptr noundef %15, ptr noundef @.str.1163)
  store i32 %37, ptr %9, align 4
  %38 = call ptr @GuidPropertySet_find_guid(ptr noundef %15)
  store ptr %38, ptr %16, align 8
  %39 = load ptr, ptr %16, align 8
  %40 = icmp ne ptr %39, null
  br i1 %40, label %41, label %49

41:                                               ; preds = %6
  %42 = load ptr, ptr %17, align 8
  %43 = load ptr, ptr %16, align 8
  %44 = getelementptr inbounds nuw %struct.GuidPropertySet, ptr %43, i32 0, i32 2
  %45 = load ptr, ptr %44, align 8
  %46 = load ptr, ptr %16, align 8
  %47 = getelementptr inbounds nuw %struct.GuidPropertySet, ptr %46, i32 0, i32 1
  %48 = load ptr, ptr %47, align 8
  call void (ptr, ptr, ...) @proto_item_append_text(ptr noundef %42, ptr noundef @.str.1164, ptr noundef %45, ptr noundef %48)
  br label %54

49:                                               ; preds = %6
  call void @llvm.lifetime.start.p0(i64 8, ptr %21) #11
  %50 = call ptr @wmem_packet_scope()
  %51 = call ptr @guid_to_str(ptr noundef %50, ptr noundef %15)
  store ptr %51, ptr %21, align 8
  %52 = load ptr, ptr %17, align 8
  %53 = load ptr, ptr %21, align 8
  call void (ptr, ptr, ...) @proto_item_append_text(ptr noundef %52, ptr noundef @.str.1165, ptr noundef %53)
  call void @llvm.lifetime.end.p0(i64 8, ptr %21) #11
  br label %54

54:                                               ; preds = %49, %41
  %55 = load ptr, ptr %7, align 8
  %56 = load i32, ptr %9, align 4
  %57 = load ptr, ptr %11, align 8
  %58 = call i32 (ptr, i32, i32, ptr, ptr, ...) @parse_padding(ptr noundef %55, i32 noundef %56, i32 noundef 4, ptr noundef %57, ptr noundef @.str.1163)
  store i32 %58, ptr %9, align 4
  %59 = load ptr, ptr %7, align 8
  %60 = load i32, ptr %9, align 4
  %61 = call i32 @tvb_get_letohl(ptr noundef %59, i32 noundef %60)
  store i32 %61, ptr %14, align 4
  %62 = load ptr, ptr %18, align 8
  %63 = load i32, ptr @hf_mswsp_cdbpropset_cprops, align 4
  %64 = load ptr, ptr %7, align 8
  %65 = load i32, ptr %9, align 4
  %66 = load i32, ptr %14, align 4
  %67 = call ptr @proto_tree_add_uint(ptr noundef %62, i32 noundef %63, ptr noundef %64, i32 noundef %65, i32 noundef 4, i32 noundef %66)
  %68 = load i32, ptr %9, align 4
  %69 = add i32 %68, 4
  store i32 %69, ptr %9, align 4
  %70 = load ptr, ptr %17, align 8
  %71 = load i32, ptr %14, align 4
  call void (ptr, ptr, ...) @proto_item_append_text(ptr noundef %70, ptr noundef @.str.1166, i32 noundef %71)
  store i32 0, ptr %13, align 4
  br label %72

72:                                               ; preds = %90, %54
  %73 = load i32, ptr %13, align 4
  %74 = load i32, ptr %14, align 4
  %75 = icmp slt i32 %73, %74
  br i1 %75, label %76, label %93

76:                                               ; preds = %72
  %77 = load ptr, ptr %7, align 8
  %78 = load i32, ptr %9, align 4
  %79 = load ptr, ptr %11, align 8
  %80 = load i32, ptr %13, align 4
  %81 = call i32 (ptr, i32, i32, ptr, ptr, ...) @parse_padding(ptr noundef %77, i32 noundef %78, i32 noundef 4, ptr noundef %79, ptr noundef @.str.1167, i32 noundef %80)
  store i32 %81, ptr %9, align 4
  %82 = load ptr, ptr %7, align 8
  %83 = load ptr, ptr %8, align 8
  %84 = load i32, ptr %9, align 4
  %85 = load ptr, ptr %18, align 8
  %86 = load ptr, ptr %11, align 8
  %87 = load ptr, ptr %16, align 8
  %88 = load i32, ptr %13, align 4
  %89 = call i32 (ptr, ptr, i32, ptr, ptr, ptr, ptr, ...) @parse_CDbProp(ptr noundef %82, ptr noundef %83, i32 noundef %84, ptr noundef %85, ptr noundef %86, ptr noundef %87, ptr noundef @.str.1167, i32 noundef %88)
  store i32 %89, ptr %9, align 4
  br label %90

90:                                               ; preds = %76
  %91 = load i32, ptr %13, align 4
  %92 = add i32 %91, 1
  store i32 %92, ptr %13, align 4
  br label %72, !llvm.loop !14

93:                                               ; preds = %72
  %94 = load ptr, ptr %17, align 8
  %95 = load ptr, ptr %7, align 8
  %96 = load i32, ptr %9, align 4
  call void @proto_item_set_end(ptr noundef %94, ptr noundef %95, i32 noundef %96)
  %97 = load i32, ptr %9, align 4
  call void @llvm.lifetime.end.p0(i64 24, ptr %20) #11
  call void @llvm.lifetime.end.p0(i64 8, ptr %19) #11
  call void @llvm.lifetime.end.p0(i64 8, ptr %18) #11
  call void @llvm.lifetime.end.p0(i64 8, ptr %17) #11
  call void @llvm.lifetime.end.p0(i64 8, ptr %16) #11
  call void @llvm.lifetime.end.p0(i64 16, ptr %15) #11
  call void @llvm.lifetime.end.p0(i64 4, ptr %14) #11
  call void @llvm.lifetime.end.p0(i64 4, ptr %13) #11
  ret i32 %97
}