; Function Attrs: null_pointer_is_valid sspstrong uwtable
define internal noundef i32 @parse_CDbPropSet(ptr noundef %0, ptr noundef %1, i32 noundef %2, ptr noundef %3, ptr noundef %4, ptr readnone captures(none) %5, ...) unnamed_addr #0 {
  %7 = alloca %struct._e_guid_t, align 4
  %8 = alloca ptr, align 8
  %9 = alloca [1 x %struct.__va_list_tag], align 16
  call void @llvm.lifetime.start.p0(i64 16, ptr nonnull %7) #11
  call void @llvm.lifetime.start.p0(i64 8, ptr nonnull %8) #11
  call void @llvm.lifetime.start.p0(i64 24, ptr nonnull %9) #11
  call void @llvm.va_start.p0(ptr nonnull %9)
  %10 = call ptr @wmem_packet_scope()
  %11 = call noalias ptr @wmem_strdup_vprintf(ptr noundef %10, ptr noundef nonnull @.str.1161, ptr noundef nonnull %9)
  call void @llvm.va_end.p0(ptr nonnull %9)
  %12 = load i32, ptr @ett_CDbPropSet, align 4
  %13 = call ptr @proto_tree_add_subtree(ptr noundef %3, ptr noundef %0, i32 noundef %2, i32 noundef 0, i32 noundef %12, ptr noundef nonnull %8, ptr noundef %11)
  %14 = call fastcc i32 @parse_guid(ptr noundef %0, i32 noundef %2, ptr noundef %13, ptr noundef nonnull %7, ptr noundef nonnull @.str.1163)
  br label %16

15:                                               ; preds = %16
  %indvars.iv.next.i = add nuw nsw i64 %indvars.iv.i, 1
  %exitcond.not.i = icmp eq i64 %indvars.iv.next.i, 204
  br i1 %exitcond.not.i, label %GuidPropertySet_find_guid.exit.thread, label %16, !llvm.loop !15

16:                                               ; preds = %15, %6
  %indvars.iv.i = phi i64 [ 0, %6 ], [ %indvars.iv.next.i, %15 ]
  %17 = getelementptr [204 x %struct.GuidPropertySet], ptr @GuidPropertySet, i64 0, i64 %indvars.iv.i
  %18 = call i32 @guid_cmp(ptr noundef %17, ptr noundef nonnull %7)
  %19 = icmp eq i32 %18, 0
  br i1 %19, label %GuidPropertySet_find_guid.exit, label %15

GuidPropertySet_find_guid.exit:                   ; preds = %16
  %.not = icmp eq ptr %17, null
  br i1 %.not, label %GuidPropertySet_find_guid.exit.thread, label %20

20:                                               ; preds = %GuidPropertySet_find_guid.exit
  %21 = load ptr, ptr %8, align 8
  %22 = getelementptr inbounds nuw i8, ptr %17, i64 24
  %23 = load ptr, ptr %22, align 8
  %24 = getelementptr inbounds nuw i8, ptr %17, i64 16
  %25 = load ptr, ptr %24, align 8
  call void (ptr, ptr, ...) @proto_item_append_text(ptr noundef %21, ptr noundef nonnull @.str.1164, ptr noundef %23, ptr noundef %25)
  br label %29

GuidPropertySet_find_guid.exit.thread:            ; preds = %15, %GuidPropertySet_find_guid.exit
  %26 = call ptr @wmem_packet_scope()
  %27 = call ptr @guid_to_str(ptr noundef %26, ptr noundef nonnull %7)
  %28 = load ptr, ptr %8, align 8
  call void (ptr, ptr, ...) @proto_item_append_text(ptr noundef %28, ptr noundef nonnull @.str.1165, ptr noundef %27)
  br label %29

29:                                               ; preds = %GuidPropertySet_find_guid.exit.thread, %20
  %.05.i43 = phi ptr [ null, %GuidPropertySet_find_guid.exit.thread ], [ %17, %20 ]
  %30 = call i32 (ptr, i32, i32, ptr, ptr, ...) @parse_padding(ptr noundef %0, i32 noundef %14, i32 noundef 4, ptr noundef %4, ptr noundef nonnull @.str.1163)
  %31 = call i32 @tvb_get_letohl(ptr noundef %0, i32 noundef %30)
  %32 = load i32, ptr @hf_mswsp_cdbpropset_cprops, align 4
  %33 = call ptr @proto_tree_add_uint(ptr noundef %13, i32 noundef %32, ptr noundef %0, i32 noundef %30, i32 noundef 4, i32 noundef %31)
  %34 = add i32 %30, 4
  %35 = load ptr, ptr %8, align 8
  call void (ptr, ptr, ...) @proto_item_append_text(ptr noundef %35, ptr noundef nonnull @.str.1166, i32 noundef %31)
  %36 = icmp sgt i32 %31, 0
  br i1 %36, label %.lr.ph, label %._crit_edge

.lr.ph:                                           ; preds = %29, %.lr.ph
  %.047 = phi i32 [ %38, %.lr.ph ], [ %34, %29 ]
  %.03946 = phi i32 [ %39, %.lr.ph ], [ 0, %29 ]
  %37 = call i32 (ptr, i32, i32, ptr, ptr, ...) @parse_padding(ptr noundef %0, i32 noundef %.047, i32 noundef 4, ptr noundef %4, ptr noundef nonnull @.str.1167, i32 noundef %.03946)
  %38 = call i32 (ptr, ptr, i32, ptr, ptr, ptr, ptr, ...) @parse_CDbProp(ptr noundef %0, ptr noundef %1, i32 noundef %37, ptr noundef %13, ptr noundef %4, ptr noundef %.05.i43, ptr nonnull poison, i32 noundef %.03946)
  %39 = add nuw nsw i32 %.03946, 1
  %exitcond.not = icmp eq i32 %39, %31
  br i1 %exitcond.not, label %._crit_edge, label %.lr.ph, !llvm.loop !16

._crit_edge:                                      ; preds = %.lr.ph, %29
  %.0.lcssa = phi i32 [ %34, %29 ], [ %38, %.lr.ph ]
  %40 = load ptr, ptr %8, align 8
  call void @proto_item_set_end(ptr noundef %40, ptr noundef %0, i32 noundef %.0.lcssa)
  call void @llvm.lifetime.end.p0(i64 24, ptr nonnull %9) #11
  call void @llvm.lifetime.end.p0(i64 8, ptr nonnull %8) #11
  call void @llvm.lifetime.end.p0(i64 16, ptr nonnull %7) #11
  ret i32 %.0.lcssa
}